Certificate:
    Data:
        Version: 3 (0x2)
        Serial Number: 1 (0x1)
    Signature Algorithm: sha1WithRSAEncryption
        Issuer: C=US, ST=Massachusetts, L=Worcester, O=cs557, O=Nathan Longnecker, CN=nwlCA
        Validity
            Not Before: Oct 17 23:16:50 2014 GMT
            Not After : Oct 17 23:16:50 2015 GMT
        Subject: C=US, ST=Massachusetts, O=cs557, O=Nathan Longnecker, CN=Joe
        Subject Public Key Info:
            Public Key Algorithm: rsaEncryption
                Public-Key: (2048 bit)
                Modulus:
                    00:d4:bf:32:fa:b7:88:5a:3d:95:59:e5:25:39:71:
                    6b:bf:0f:8d:5a:4e:ac:3d:c3:e3:3b:7c:22:bf:ed:
                    6f:83:a2:bb:64:bb:70:4e:f3:79:42:0f:35:8a:44:
                    98:9f:c0:cd:65:bd:73:8d:0d:48:53:18:89:57:5e:
                    eb:ca:96:c3:6e:17:42:c9:ff:46:b8:1f:b5:75:63:
                    b6:da:f8:2e:37:cc:4b:55:fd:b6:1d:dc:79:9d:84:
                    6d:4a:8a:f5:03:af:1d:3e:63:01:a7:34:7c:e6:96:
                    b3:c6:45:f6:e4:d0:34:ad:c9:dd:49:6a:eb:5b:e0:
                    da:c0:38:a9:1c:e0:76:54:4f:79:37:32:d4:42:9a:
                    59:59:33:ff:82:4b:e7:cb:73:78:c3:0c:b7:aa:bb:
                    4b:fd:c4:d8:58:23:86:a9:4e:2c:77:6b:a0:45:a3:
                    f0:f6:9f:34:53:bc:ab:eb:07:2a:8d:45:e2:c8:ca:
                    95:68:ad:4e:ea:0c:40:41:27:b3:48:54:69:fe:49:
                    82:84:ea:7a:4e:9f:e9:54:fb:b4:d3:27:af:d8:f6:
                    49:f2:a6:dd:e6:f6:ec:95:b2:c2:e0:32:29:1c:86:
                    e2:d1:97:75:91:64:83:32:5c:a0:8d:ed:81:59:b9:
                    57:4c:09:89:48:e4:c2:b6:78:d8:48:ac:a0:45:61:
                    ab:57
                Exponent: 65537 (0x10001)
        X509v3 extensions:
            X509v3 Basic Constraints: 
                CA:FALSE
            Netscape Comment: 
                OpenSSL Generated Certificate
            X509v3 Subject Key Identifier: 
                3D:E5:FF:62:29:7F:45:6D:FE:B4:3B:67:13:F8:EC:A0:4E:54:02:4D
            X509v3 Authority Key Identifier: 
                keyid:CD:08:F0:23:C2:EB:4A:1C:50:93:5E:BD:0B:BC:FB:8F:C9:6B:8F:50

    Signature Algorithm: sha1WithRSAEncryption
         a6:e3:9a:89:fb:6d:e2:e7:d3:ce:16:b8:0a:48:d0:43:98:65:
         67:37:78:1b:62:3e:f2:2c:32:3a:f8:05:66:ee:cc:1e:29:6b:
         70:4c:ae:a9:08:aa:8c:ec:2b:26:0e:db:94:8c:59:20:dd:ea:
         cd:4e:39:fc:f7:31:65:ba:62:cf:57:59:b7:64:61:ab:52:8d:
         07:33:a9:f9:66:92:1d:9b:a9:4a:c1:57:40:49:0e:a2:f5:4a:
         ec:d9:6a:cd:f7:ee:ff:8f:7d:ad:79:c3:08:6a:3b:d8:f5:fe:
         3f:d9:31:f9:0d:92:28:85:9f:aa:a1:b9:6a:20:89:16:50:bd:
         8b:39:ff:09:e1:45:ca:c0:dc:62:6b:49:f8:b2:af:e7:de:0f:
         ca:12:49:a0:ef:a5:8f:57:a6:81:e5:84:43:cb:65:1a:64:ac:
         8f:0a:b9:12:f2:f8:81:ba:88:7c:fa:e2:74:8c:2c:92:ab:28:
         76:36:77:8c:d4:43:5a:07:ab:49:0e:ee:13:f4:78:e3:09:d3:
         3d:b9:b6:19:d4:a6:81:4e:85:36:24:65:b4:b0:2f:fd:63:de:
         dc:ed:7b:5b:a1:3d:a8:67:2b:c9:4b:42:e3:78:e1:92:f0:6e:
         99:2e:da:5d:45:17:1e:73:b2:ba:29:f7:c2:04:bd:d7:09:a4:
         d8:e8:fc:60
-----BEGIN CERTIFICATE-----
MIIDyjCCArKgAwIBAgIBATANBgkqhkiG9w0BAQUFADB1MQswCQYDVQQGEwJVUzEW
MBQGA1UECAwNTWFzc2FjaHVzZXR0czESMBAGA1UEBwwJV29yY2VzdGVyMQ4wDAYD
VQQKDAVjczU1NzEaMBgGA1UECgwRTmF0aGFuIExvbmduZWNrZXIxDjAMBgNVBAMM
BW53bENBMB4XDTE0MTAxNzIzMTY1MFoXDTE1MTAxNzIzMTY1MFowXzELMAkGA1UE
BhMCVVMxFjAUBgNVBAgMDU1hc3NhY2h1c2V0dHMxDjAMBgNVBAoMBWNzNTU3MRow
GAYDVQQKDBFOYXRoYW4gTG9uZ25lY2tlcjEMMAoGA1UEAwwDSm9lMIIBIjANBgkq
hkiG9w0BAQEFAAOCAQ8AMIIBCgKCAQEA1L8y+reIWj2VWeUlOXFrvw+NWk6sPcPj
O3wiv+1vg6K7ZLtwTvN5Qg81ikSYn8DNZb1zjQ1IUxiJV17rypbDbhdCyf9GuB+1
dWO22vguN8xLVf22Hdx5nYRtSor1A68dPmMBpzR85pazxkX25NA0rcndSWrrW+Da
wDipHOB2VE95NzLUQppZWTP/gkvny3N4wwy3qrtL/cTYWCOGqU4sd2ugRaPw9p80
U7yr6wcqjUXiyMqVaK1O6gxAQSezSFRp/kmChOp6Tp/pVPu00yev2PZJ8qbd5vbs
lbLC4DIpHIbi0Zd1kWSDMlygje2BWblXTAmJSOTCtnjYSKygRWGrVwIDAQABo3sw
eTAJBgNVHRMEAjAAMCwGCWCGSAGG+EIBDQQfFh1PcGVuU1NMIEdlbmVyYXRlZCBD
ZXJ0aWZpY2F0ZTAdBgNVHQ4EFgQUPeX/Yil/RW3+tDtnE/jsoE5UAk0wHwYDVR0j
BBgwFoAUzQjwI8LrShxQk169C7z7j8lrj1AwDQYJKoZIhvcNAQEFBQADggEBAKbj
mon7beLn084WuApI0EOYZWc3eBtiPvIsMjr4BWbuzB4pa3BMrqkIqozsKyYO25SM
WSDd6s1OOfz3MWW6Ys9XWbdkYatSjQczqflmkh2bqUrBV0BJDqL1SuzZas337v+P
fa15wwhqO9j1/j/ZMfkNkiiFn6qhuWogiRZQvYs5/wnhRcrA3GJrSfiyr+feD8oS
SaDvpY9XpoHlhEPLZRpkrI8KuRLy+IG6iHz64nSMLJKrKHY2d4zUQ1oHq0kO7hP0
eOMJ0z25thnUpoFOhTYkZbSwL/1j3tzte1uhPahnK8lLQuN44ZLwbpku2l1FFx5z
srop98IEvdcJpNjo/GA=
-----END CERTIFICATE-----
